target datalayout = "e-m:e-p270:32:32-p271:32:32-p272:64:64-i64:64-i128:128-f80:128-n8:16:32:64-S128"
target triple = "x86_64-pc-linux-gnu"

%struct._lv_menu_t = type { %struct._lv_obj_t, ptr, ptr, ptr, ptr, ptr, ptr, ptr, ptr, ptr, ptr, ptr, ptr, %struct.lv_ll_t, i8, i8, i8 }
%struct._lv_obj_t = type { ptr, ptr, ptr, ptr, ptr, %struct.lv_area_t, i32, i16, i16 }
%struct.lv_area_t = type { i32, i32, i32, i32 }
%struct.lv_ll_t = type { i32, ptr, ptr }

@lv_menu_main_cont_class = constant { ptr, ptr, ptr, ptr, ptr, ptr, i32, i32, i8, i8, i8, [5 x i8] } { ptr @lv_obj_class, ptr null, ptr null, ptr null, ptr null, ptr null, i32 0, i32 0, i8 0, i8 0, i8 0, [5 x i8] zeroinitializer }, align 8
@lv_menu_main_header_cont_class = constant { ptr, ptr, ptr, ptr, ptr, ptr, i32, i32, i8, i8, i8, [5 x i8] } { ptr @lv_obj_class, ptr null, ptr null, ptr null, ptr null, ptr null, i32 0, i32 0, i8 0, i8 0, i8 0, [5 x i8] zeroinitializer }, align 8
@.str.5 = private unnamed_addr constant [4 x i8] c"\EF\81\93\00", align 1

; Function Attrs: nounwind uwtable
define internal void @lv_menu_constructor(ptr noundef %0, ptr noundef %1) #0 {
  %3 = alloca ptr, align 8
  %4 = alloca ptr, align 8
  %5 = alloca ptr, align 8
  %6 = alloca ptr, align 8
  %7 = alloca ptr, align 8
  %8 = alloca ptr, align 8
  %9 = alloca ptr, align 8
  %10 = alloca ptr, align 8
  store ptr %0, ptr %3, align 8, !tbaa !3
  store ptr %1, ptr %4, align 8, !tbaa !3
  %11 = load ptr, ptr %4, align 8, !tbaa !3
  call void @lv_obj_set_layout(ptr noundef %11, i32 noundef 1)
  %12 = load ptr, ptr %4, align 8, !tbaa !3
  call void @lv_obj_set_flex_flow(ptr noundef %12, i32 noundef 0)
  call void @llvm.lifetime.start.p0(i64 8, ptr %5) #3
  %13 = load ptr, ptr %4, align 8, !tbaa !3
  store ptr %13, ptr %5, align 8, !tbaa !3
  %14 = load ptr, ptr %5, align 8, !tbaa !3
  %15 = getelementptr inbounds nuw %struct._lv_menu_t, ptr %14, i32 0, i32 16
  %16 = load i8, ptr %15, align 2
  %17 = and i8 %16, -7
  %18 = or i8 %17, 0
  store i8 %18, ptr %15, align 2
  %19 = load ptr, ptr %5, align 8, !tbaa !3
  %20 = getelementptr inbounds nuw %struct._lv_menu_t, ptr %19, i32 0, i32 16
  %21 = load i8, ptr %20, align 2
  %22 = and i8 %21, -9
  %23 = or i8 %22, 0
  store i8 %23, ptr %20, align 2
  %24 = load ptr, ptr %5, align 8, !tbaa !3
  %25 = getelementptr inbounds nuw %struct._lv_menu_t, ptr %24, i32 0, i32 14
  store i8 0, ptr %25, align 8, !tbaa !7
  %26 = load ptr, ptr %5, align 8, !tbaa !3
  %27 = getelementptr inbounds nuw %struct._lv_menu_t, ptr %26, i32 0, i32 15
  store i8 0, ptr %27, align 1, !tbaa !14
  %28 = load ptr, ptr %5, align 8, !tbaa !3
  %29 = getelementptr inbounds nuw %struct._lv_menu_t, ptr %28, i32 0, i32 16
  %30 = load i8, ptr %29, align 2
  %31 = and i8 %30, -2
  %32 = or i8 %31, 0
  store i8 %32, ptr %29, align 2
  %33 = load ptr, ptr %5, align 8, !tbaa !3
  %34 = getelementptr inbounds nuw %struct._lv_menu_t, ptr %33, i32 0, i32 13
  call void @lv_ll_init(ptr noundef %34, i32 noundef 8)
  %35 = load ptr, ptr %4, align 8, !tbaa !3
  %36 = call ptr @lv_obj_create(ptr noundef %35)
  %37 = load ptr, ptr %5, align 8, !tbaa !3
  %38 = getelementptr inbounds nuw %struct._lv_menu_t, ptr %37, i32 0, i32 1
  store ptr %36, ptr %38, align 8, !tbaa !15
  %39 = load ptr, ptr %5, align 8, !tbaa !3
  %40 = getelementptr inbounds nuw %struct._lv_menu_t, ptr %39, i32 0, i32 1
  %41 = load ptr, ptr %40, align 8, !tbaa !15
  call void @lv_obj_add_flag(ptr noundef %41, i32 noundef 1)
  %42 = load ptr, ptr %5, align 8, !tbaa !3
  %43 = getelementptr inbounds nuw %struct._lv_menu_t, ptr %42, i32 0, i32 7
  store ptr null, ptr %43, align 8, !tbaa !16
  %44 = load ptr, ptr %5, align 8, !tbaa !3
  %45 = getelementptr inbounds nuw %struct._lv_menu_t, ptr %44, i32 0, i32 9
  store ptr null, ptr %45, align 8, !tbaa !17
  %46 = load ptr, ptr %5, align 8, !tbaa !3
  %47 = getelementptr inbounds nuw %struct._lv_menu_t, ptr %46, i32 0, i32 10
  store ptr null, ptr %47, align 8, !tbaa !18
  %48 = load ptr, ptr %5, align 8, !tbaa !3
  %49 = getelementptr inbounds nuw %struct._lv_menu_t, ptr %48, i32 0, i32 11
  store ptr null, ptr %49, align 8, !tbaa !19
  %50 = load ptr, ptr %5, align 8, !tbaa !3
  %51 = getelementptr inbounds nuw %struct._lv_menu_t, ptr %50, i32 0, i32 8
  store ptr null, ptr %51, align 8, !tbaa !20
  call void @llvm.lifetime.start.p0(i64 8, ptr %6) #3
  %52 = load ptr, ptr %4, align 8, !tbaa !3
  %53 = call ptr @lv_obj_class_create_obj(ptr noundef @lv_menu_main_cont_class, ptr noundef %52)
  store ptr %53, ptr %6, align 8, !tbaa !3
  %54 = load ptr, ptr %6, align 8, !tbaa !3
  call void @lv_obj_class_init_obj(ptr noundef %54)
  %55 = load ptr, ptr %6, align 8, !tbaa !3
  call void @lv_obj_set_height(ptr noundef %55, i32 noundef 536871012)
  %56 = load ptr, ptr %6, align 8, !tbaa !3
  call void @lv_obj_set_flex_grow(ptr noundef %56, i8 noundef zeroext 1)
  %57 = load ptr, ptr %6, align 8, !tbaa !3
  call void @lv_obj_set_flex_flow(ptr noundef %57, i32 noundef 1)
  %58 = load ptr, ptr %6, align 8, !tbaa !3
  call void @lv_obj_add_flag(ptr noundef %58, i32 noundef 16384)
  %59 = load ptr, ptr %6, align 8, !tbaa !3
  call void @lv_obj_remove_flag(ptr noundef %59, i32 noundef 2)
  %60 = load ptr, ptr %6, align 8, !tbaa !3
  %61 = load ptr, ptr %5, align 8, !tbaa !3
  %62 = getelementptr inbounds nuw %struct._lv_menu_t, ptr %61, i32 0, i32 2
  store ptr %60, ptr %62, align 8, !tbaa !21
  call void @llvm.lifetime.start.p0(i64 8, ptr %7) #3
  %63 = load ptr, ptr %6, align 8, !tbaa !3
  %64 = call ptr @lv_obj_class_create_obj(ptr noundef @lv_menu_main_header_cont_class, ptr noundef %63)
  store ptr %64, ptr %7, align 8, !tbaa !3
  %65 = load ptr, ptr %7, align 8, !tbaa !3
  call void @lv_obj_class_init_obj(ptr noundef %65)
  %66 = load ptr, ptr %7, align 8, !tbaa !3
  call void @lv_obj_set_size(ptr noundef %66, i32 noundef 536871012, i32 noundef 1073741823)
  %67 = load ptr, ptr %7, align 8, !tbaa !3
  call void @lv_obj_set_flex_flow(ptr noundef %67, i32 noundef 0)
  %68 = load ptr, ptr %7, align 8, !tbaa !3
  call void @lv_obj_set_flex_align(ptr noundef %68, i32 noundef 0, i32 noundef 2, i32 noundef 2)
  %69 = load ptr, ptr %7, align 8, !tbaa !3
  call void @lv_obj_remove_flag(ptr noundef %69, i32 noundef 2)
  %70 = load ptr, ptr %7, align 8, !tbaa !3
  call void @lv_obj_add_flag(ptr noundef %70, i32 noundef 16384)
  %71 = load ptr, ptr %7, align 8, !tbaa !3
  %72 = load ptr, ptr %5, align 8, !tbaa !3
  %73 = getelementptr inbounds nuw %struct._lv_menu_t, ptr %72, i32 0, i32 4
  store ptr %71, ptr %73, align 8, !tbaa !22
  call void @llvm.lifetime.start.p0(i64 8, ptr %8) #3
  %74 = load ptr, ptr %5, align 8, !tbaa !3
  %75 = getelementptr inbounds nuw %struct._lv_menu_t, ptr %74, i32 0, i32 4
  %76 = load ptr, ptr %75, align 8, !tbaa !22
  %77 = call ptr @lv_button_create(ptr noundef %76)
  store ptr %77, ptr %8, align 8, !tbaa !3
  %78 = load ptr, ptr %8, align 8, !tbaa !3
  %79 = load ptr, ptr %5, align 8, !tbaa !3
  %80 = call ptr @lv_obj_add_event_cb(ptr noundef %78, ptr noundef @lv_menu_back_event_cb, i32 noundef 10, ptr noundef %79)
  %81 = load ptr, ptr %8, align 8, !tbaa !3
  call void @lv_obj_add_flag(ptr noundef %81, i32 noundef 16384)
  %82 = load ptr, ptr %8, align 8, !tbaa !3
  call void @lv_obj_set_flex_flow(ptr noundef %82, i32 noundef 0)
  %83 = load ptr, ptr %8, align 8, !tbaa !3
  %84 = load ptr, ptr %5, align 8, !tbaa !3
  %85 = getelementptr inbounds nuw %struct._lv_menu_t, ptr %84, i32 0, i32 5
  store ptr %83, ptr %85, align 8, !tbaa !23
  call void @llvm.lifetime.start.p0(i64 8, ptr %9) #3
  %86 = load ptr, ptr %5, align 8, !tbaa !3
  %87 = getelementptr inbounds nuw %struct._lv_menu_t, ptr %86, i32 0, i32 5
  %88 = load ptr, ptr %87, align 8, !tbaa !23
  %89 = call ptr @lv_image_create(ptr noundef %88)
  store ptr %89, ptr %9, align 8, !tbaa !3
  %90 = load ptr, ptr %9, align 8, !tbaa !3
  call void @lv_image_set_src(ptr noundef %90, ptr noundef @.str.5)
  call void @llvm.lifetime.start.p0(i64 8, ptr %10) #3
  %91 = load ptr, ptr %5, align 8, !tbaa !3
  %92 = getelementptr inbounds nuw %struct._lv_menu_t, ptr %91, i32 0, i32 4
  %93 = load ptr, ptr %92, align 8, !tbaa !22
  %94 = call ptr @lv_label_create(ptr noundef %93)
  store ptr %94, ptr %10, align 8, !tbaa !3
  %95 = load ptr, ptr %10, align 8, !tbaa !3
  call void @lv_obj_add_flag(ptr noundef %95, i32 noundef 1)
  %96 = load ptr, ptr %10, align 8, !tbaa !3
  %97 = load ptr, ptr %5, align 8, !tbaa !3
  %98 = getelementptr inbounds nuw %struct._lv_menu_t, ptr %97, i32 0, i32 6
  store ptr %96, ptr %98, align 8, !tbaa !24
  %99 = load ptr, ptr %5, align 8, !tbaa !3
  %100 = getelementptr inbounds nuw %struct._lv_menu_t, ptr %99, i32 0, i32 3
  store ptr null, ptr %100, align 8, !tbaa !25
  %101 = load ptr, ptr %5, align 8, !tbaa !3
  %102 = getelementptr inbounds nuw %struct._lv_menu_t, ptr %101, i32 0, i32 12
  store ptr null, ptr %102, align 8, !tbaa !26
  %103 = load ptr, ptr %4, align 8, !tbaa !3
  %104 = load ptr, ptr %5, align 8, !tbaa !3
  %105 = call ptr @lv_obj_add_event_cb(ptr noundef %103, ptr noundef @lv_menu_value_changed_event_cb, i32 noundef 35, ptr noundef %104)
  call void @llvm.lifetime.end.p0(i64 8, ptr %10) #3
  call void @llvm.lifetime.end.p0(i64 8, ptr %9) #3
  call void @llvm.lifetime.end.p0(i64 8, ptr %8) #3
  call void @llvm.lifetime.end.p0(i64 8, ptr %7) #3
  call void @llvm.lifetime.end.p0(i64 8, ptr %6) #3
  call void @llvm.lifetime.end.p0(i64 8, ptr %5) #3
  ret void
}