; Function Attrs: nounwind uwtable
define internal void @lv_menu_constructor(ptr nocapture readnone %0, ptr noundef %1) #0 {
  tail call void @lv_obj_set_layout(ptr noundef %1, i32 noundef 1) #4
  tail call void @lv_obj_set_flex_flow(ptr noundef %1, i32 noundef 0) #4
  %3 = getelementptr inbounds nuw i8, ptr %1, i64 186
  %4 = load i8, ptr %3, align 2
  %5 = getelementptr inbounds nuw i8, ptr %1, i64 184
  store i8 0, ptr %5, align 8, !tbaa !3
  %6 = getelementptr inbounds nuw i8, ptr %1, i64 185
  store i8 0, ptr %6, align 1, !tbaa !13
  %7 = and i8 %4, -16
  store i8 %7, ptr %3, align 2
  %8 = getelementptr inbounds nuw i8, ptr %1, i64 160
  tail call void @lv_ll_init(ptr noundef nonnull %8, i32 noundef 8) #4
  %9 = tail call ptr @lv_obj_create(ptr noundef %1) #4
  %10 = getelementptr inbounds nuw i8, ptr %1, i64 64
  store ptr %9, ptr %10, align 8, !tbaa !14
  tail call void @lv_obj_add_flag(ptr noundef %9, i32 noundef 1) #4
  %11 = getelementptr inbounds nuw i8, ptr %1, i64 112
  tail call void @llvm.memset.p0.i64(ptr noundef nonnull align 8 dereferenceable(40) %11, i8 0, i64 40, i1 false)
  %12 = tail call ptr @lv_obj_class_create_obj(ptr noundef nonnull @lv_menu_main_cont_class, ptr noundef %1) #4
  tail call void @lv_obj_class_init_obj(ptr noundef %12) #4
  tail call void @lv_obj_set_height(ptr noundef %12, i32 noundef 536871012) #4
  tail call void @lv_obj_set_flex_grow(ptr noundef %12, i8 noundef zeroext 1) #4
  tail call void @lv_obj_set_flex_flow(ptr noundef %12, i32 noundef 1) #4
  tail call void @lv_obj_add_flag(ptr noundef %12, i32 noundef 16384) #4
  tail call void @lv_obj_remove_flag(ptr noundef %12, i32 noundef 2) #4
  %13 = getelementptr inbounds nuw i8, ptr %1, i64 72
  store ptr %12, ptr %13, align 8, !tbaa !15
  %14 = tail call ptr @lv_obj_class_create_obj(ptr noundef nonnull @lv_menu_main_header_cont_class, ptr noundef %12) #4
  tail call void @lv_obj_class_init_obj(ptr noundef %14) #4
  tail call void @lv_obj_set_size(ptr noundef %14, i32 noundef 536871012, i32 noundef 1073741823) #4
  tail call void @lv_obj_set_flex_flow(ptr noundef %14, i32 noundef 0) #4
  tail call void @lv_obj_set_flex_align(ptr noundef %14, i32 noundef 0, i32 noundef 2, i32 noundef 2) #4
  tail call void @lv_obj_remove_flag(ptr noundef %14, i32 noundef 2) #4
  tail call void @lv_obj_add_flag(ptr noundef %14, i32 noundef 16384) #4
  %15 = getelementptr inbounds nuw i8, ptr %1, i64 88
  store ptr %14, ptr %15, align 8, !tbaa !16
  %16 = tail call ptr @lv_button_create(ptr noundef %14) #4
  %17 = tail call ptr @lv_obj_add_event_cb(ptr noundef %16, ptr noundef nonnull @lv_menu_back_event_cb, i32 noundef 10, ptr noundef %1) #4
  tail call void @lv_obj_add_flag(ptr noundef %16, i32 noundef 16384) #4
  tail call void @lv_obj_set_flex_flow(ptr noundef %16, i32 noundef 0) #4
  %18 = getelementptr inbounds nuw i8, ptr %1, i64 96
  store ptr %16, ptr %18, align 8, !tbaa !17
  %19 = tail call ptr @lv_image_create(ptr noundef %16) #4
  tail call void @lv_image_set_src(ptr noundef %19, ptr noundef nonnull @.str.5) #4
  %20 = load ptr, ptr %15, align 8, !tbaa !16
  %21 = tail call ptr @lv_label_create(ptr noundef %20) #4
  tail call void @lv_obj_add_flag(ptr noundef %21, i32 noundef 1) #4
  %22 = getelementptr inbounds nuw i8, ptr %1, i64 104
  store ptr %21, ptr %22, align 8, !tbaa !18
  %23 = getelementptr inbounds nuw i8, ptr %1, i64 80
  store ptr null, ptr %23, align 8, !tbaa !19
  %24 = getelementptr inbounds nuw i8, ptr %1, i64 152
  store ptr null, ptr %24, align 8, !tbaa !20
  %25 = tail call ptr @lv_obj_add_event_cb(ptr noundef %1, ptr noundef nonnull @lv_menu_value_changed_event_cb, i32 noundef 35, ptr noundef %1) #4
  ret void
}